; Function Attrs: mustprogress nounwind uwtable
define hidden void @_ZN6spacer24lemma_global_generalizer8subsumer5resetEv(ptr noundef nonnull align 8 captures(none) dereferenceable(152) initializes((104, 108)) %0) local_unnamed_addr #5 align 2 personality ptr @__gxx_personality_v0 {
  %2 = getelementptr inbounds nuw i8, ptr %0, i64 104
  store i32 0, ptr %2, align 8, !tbaa !37
  %3 = getelementptr inbounds nuw i8, ptr %0, i64 128
  %4 = load ptr, ptr %3, align 8, !tbaa !59
  %.not.i = icmp eq ptr %4, null
  br i1 %.not.i, label %_ZN6vectorI8rationalLb1EjE5resetEv.exit, label %_ZNK6vectorI8rationalLb1EjE4sizeEv.exit.i.i

_ZNK6vectorI8rationalLb1EjE4sizeEv.exit.i.i:      ; preds = %1
  %5 = getelementptr inbounds i8, ptr %4, i64 -4
  %6 = load i32, ptr %5, align 4, !tbaa !60
  %.not6.i.i.i.i.i = icmp eq i32 %6, 0
  br i1 %.not6.i.i.i.i.i, label %_ZN6vectorI8rationalLb1EjE16destroy_elementsEv.exit.i, label %.lr.ph.i.i.i.i.i

.lr.ph.i.i.i.i.i:                                 ; preds = %_ZNK6vectorI8rationalLb1EjE4sizeEv.exit.i.i, %_ZSt8_DestroyI8rationalEvPT_.exit.i.i.i.i.i
  %.08.i.i.i.i.i = phi i32 [ %13, %_ZSt8_DestroyI8rationalEvPT_.exit.i.i.i.i.i ], [ %6, %_ZNK6vectorI8rationalLb1EjE4sizeEv.exit.i.i ]
  %.047.i.i.i.i.i = phi ptr [ %12, %_ZSt8_DestroyI8rationalEvPT_.exit.i.i.i.i.i ], [ %4, %_ZNK6vectorI8rationalLb1EjE4sizeEv.exit.i.i ]
  %7 = load ptr, ptr @_ZN8rational13g_mpq_managerE, align 8, !tbaa !61
  invoke void @_ZN11mpz_managerILb1EE3delEPS0_R3mpz(ptr noundef %7, ptr noundef nonnull align 8 dereferenceable(32) %.047.i.i.i.i.i)
          to label %.noexc.i.i.i.i.i.i.i.i unwind label %9

.noexc.i.i.i.i.i.i.i.i:                           ; preds = %.lr.ph.i.i.i.i.i
  %8 = getelementptr inbounds nuw i8, ptr %.047.i.i.i.i.i, i64 16
  invoke void @_ZN11mpz_managerILb1EE3delEPS0_R3mpz(ptr noundef %7, ptr noundef nonnull align 8 dereferenceable(16) %8)
          to label %_ZSt8_DestroyI8rationalEvPT_.exit.i.i.i.i.i unwind label %9

9:                                                ; preds = %.noexc.i.i.i.i.i.i.i.i, %.lr.ph.i.i.i.i.i
  %10 = landingpad { ptr, i32 }
          catch ptr null
  %11 = extractvalue { ptr, i32 } %10, 0
  tail call void @__clang_call_terminate(ptr %11) #24
  unreachable

_ZSt8_DestroyI8rationalEvPT_.exit.i.i.i.i.i:      ; preds = %.noexc.i.i.i.i.i.i.i.i
  %12 = getelementptr inbounds nuw i8, ptr %.047.i.i.i.i.i, i64 32
  %13 = add i32 %.08.i.i.i.i.i, -1
  %.not.i.i.i.i.i = icmp eq i32 %13, 0
  br i1 %.not.i.i.i.i.i, label %_ZN6vectorI8rationalLb1EjE16destroy_elementsEv.exit.loopexit.i, label %.lr.ph.i.i.i.i.i, !llvm.loop !63

_ZN6vectorI8rationalLb1EjE16destroy_elementsEv.exit.loopexit.i: ; preds = %_ZSt8_DestroyI8rationalEvPT_.exit.i.i.i.i.i
  %.pre.i = load ptr, ptr %3, align 8, !tbaa !59
  br label %_ZN6vectorI8rationalLb1EjE16destroy_elementsEv.exit.i

_ZN6vectorI8rationalLb1EjE16destroy_elementsEv.exit.i: ; preds = %_ZN6vectorI8rationalLb1EjE16destroy_elementsEv.exit.loopexit.i, %_ZNK6vectorI8rationalLb1EjE4sizeEv.exit.i.i
  %14 = phi ptr [ %.pre.i, %_ZN6vectorI8rationalLb1EjE16destroy_elementsEv.exit.loopexit.i ], [ %4, %_ZNK6vectorI8rationalLb1EjE4sizeEv.exit.i.i ]
  %15 = getelementptr inbounds i8, ptr %14, i64 -4
  store i32 0, ptr %15, align 4, !tbaa !60
  br label %_ZN6vectorI8rationalLb1EjE5resetEv.exit

_ZN6vectorI8rationalLb1EjE5resetEv.exit:          ; preds = %1, %_ZN6vectorI8rationalLb1EjE16destroy_elementsEv.exit.i
  ret void
}